target datalayout = "e-m:e-p270:32:32-p271:32:32-p272:64:64-i64:64-i128:128-f80:128-n8:16:32:64-S128"
target triple = "x86_64-pc-linux-gnu"

%"class.sls::bvect" = type <{ %class.svector, i32, i32, i32, [4 x i8] }>
%class.svector = type { %class.vector }
%class.vector = type { ptr }
%"class.sls::bv_valuation" = type { %"class.sls::bvect", %"class.sls::bvect", %"class.sls::bvect", %"class.sls::bvect", %"class.sls::bvect", %"class.sls::bvect", i32, i32, i32, i32, %"class.sls::bvect" }

; Function Attrs: mustprogress nounwind uwtable
define linkonce_odr hidden noundef nonnull align 4 dereferenceable(4) ptr @_ZN6vectorIjLb0EjEixEj(ptr noundef nonnull align 8 dereferenceable(8) %0, i32 noundef %1) #5 comdat align 2 {
  %3 = alloca ptr, align 8
  %4 = alloca i32, align 4
  store ptr %0, ptr %3, align 8, !tbaa !17
  store i32 %1, ptr %4, align 4, !tbaa !8
  %5 = load ptr, ptr %3, align 8
  %6 = getelementptr inbounds nuw %class.vector, ptr %5, i32 0, i32 0
  %7 = load ptr, ptr %6, align 8, !tbaa !19
  %8 = load i32, ptr %4, align 4, !tbaa !8
  %9 = zext i32 %8 to i64
  %10 = getelementptr inbounds nuw i32, ptr %7, i64 %9
  ret ptr %10
}

; Function Attrs: mustprogress uwtable
define linkonce_odr hidden noundef nonnull align 4 dereferenceable(4) ptr @_ZN3sls5bvect12get_bit_wordEj(ptr noundef nonnull align 8 dereferenceable(20) %0, i32 noundef %1) #4 comdat align 2 {
  %3 = alloca ptr, align 8
  %4 = alloca i32, align 4
  store ptr %0, ptr %3, align 8, !tbaa !3
  store i32 %1, ptr %4, align 4, !tbaa !8
  %5 = load ptr, ptr %3, align 8
  %6 = load i32, ptr %4, align 4, !tbaa !8
  %7 = zext i32 %6 to i64
  %8 = udiv i64 %7, 32
  %9 = trunc i64 %8 to i32
  %10 = call noundef nonnull align 4 dereferenceable(4) ptr @_ZN6vectorIjLb0EjEixEj(ptr noundef nonnull align 8 dereferenceable(8) %5, i32 noundef %9)
  ret ptr %10
}

; Function Attrs: mustprogress nounwind uwtable
define linkonce_odr hidden noundef i32 @_ZN3sls5bvect12get_pos_maskEj(i32 noundef %0) #5 comdat align 2 {
  %2 = alloca i32, align 4
  store i32 %0, ptr %2, align 4, !tbaa !8
  %3 = load i32, ptr %2, align 4, !tbaa !8
  %4 = zext i32 %3 to i64
  %5 = urem i64 %4, 32
  %6 = trunc i64 %5 to i32
  %7 = shl i32 1, %6
  ret i32 %7
}

; Function Attrs: mustprogress uwtable
define linkonce_odr hidden noundef i32 @_ZNK3sls5bvect12get_bit_wordEj(ptr noundef nonnull align 8 dereferenceable(20) %0, i32 noundef %1) #4 comdat align 2 {
  %3 = alloca ptr, align 8
  %4 = alloca i32, align 4
  store ptr %0, ptr %3, align 8, !tbaa !3
  store i32 %1, ptr %4, align 4, !tbaa !8
  %5 = load ptr, ptr %3, align 8
  %6 = load i32, ptr %4, align 4, !tbaa !8
  %7 = zext i32 %6 to i64
  %8 = udiv i64 %7, 32
  %9 = trunc i64 %8 to i32
  %10 = call noundef nonnull align 4 dereferenceable(4) ptr @_ZNK6vectorIjLb0EjEixEj(ptr noundef nonnull align 8 dereferenceable(8) %5, i32 noundef %9)
  %11 = load i32, ptr %10, align 4, !tbaa !8
  ret i32 %11
}

; Function Attrs: mustprogress nounwind uwtable
define linkonce_odr hidden noundef nonnull align 4 dereferenceable(4) ptr @_ZNK6vectorIjLb0EjEixEj(ptr noundef nonnull align 8 dereferenceable(8) %0, i32 noundef %1) #5 comdat align 2 {
  %3 = alloca ptr, align 8
  %4 = alloca i32, align 4
  store ptr %0, ptr %3, align 8, !tbaa !17
  store i32 %1, ptr %4, align 4, !tbaa !8
  %5 = load ptr, ptr %3, align 8
  %6 = getelementptr inbounds nuw %class.vector, ptr %5, i32 0, i32 0
  %7 = load ptr, ptr %6, align 8, !tbaa !19
  %8 = load i32, ptr %4, align 4, !tbaa !8
  %9 = zext i32 %8 to i64
  %10 = getelementptr inbounds nuw i32, ptr %7, i64 %9
  ret ptr %10
}

; Function Attrs: mustprogress uwtable
define linkonce_odr hidden void @_ZN3sls5bvect3setEjb(ptr noundef nonnull align 8 dereferenceable(20) %0, i32 noundef %1, i1 noundef zeroext %2) #4 comdat align 2 {
  %4 = alloca ptr, align 8
  %5 = alloca i32, align 4
  %6 = alloca i8, align 1
  %7 = alloca i32, align 4
  store ptr %0, ptr %4, align 8, !tbaa !3
  store i32 %1, ptr %5, align 4, !tbaa !8
  %8 = zext i1 %2 to i8
  store i8 %8, ptr %6, align 1, !tbaa !25
  %9 = load ptr, ptr %4, align 8
  call void @llvm.lifetime.start.p0(i64 4, ptr %7) #3
  %10 = load i8, ptr %6, align 1, !tbaa !25, !range !27, !noundef !28
  %11 = trunc i8 %10 to i1
  %12 = zext i1 %11 to i32
  %13 = sub i32 0, %12
  store i32 %13, ptr %7, align 4, !tbaa !8
  %14 = load i32, ptr %7, align 4, !tbaa !8
  %15 = load i32, ptr %5, align 4, !tbaa !8
  %16 = call noundef nonnull align 4 dereferenceable(4) ptr @_ZN3sls5bvect12get_bit_wordEj(ptr noundef nonnull align 8 dereferenceable(20) %9, i32 noundef %15)
  %17 = load i32, ptr %16, align 4, !tbaa !8
  %18 = xor i32 %14, %17
  %19 = load i32, ptr %5, align 4, !tbaa !8
  %20 = call noundef i32 @_ZN3sls5bvect12get_pos_maskEj(i32 noundef %19)
  %21 = and i32 %18, %20
  %22 = load i32, ptr %5, align 4, !tbaa !8
  %23 = call noundef nonnull align 4 dereferenceable(4) ptr @_ZN3sls5bvect12get_bit_wordEj(ptr noundef nonnull align 8 dereferenceable(20) %9, i32 noundef %22)
  %24 = load i32, ptr %23, align 4, !tbaa !8
  %25 = xor i32 %24, %21
  store i32 %25, ptr %23, align 4, !tbaa !8
  call void @llvm.lifetime.end.p0(i64 4, ptr %7) #3
  ret void
}

; Function Attrs: mustprogress uwtable
define linkonce_odr hidden noundef zeroext i1 @_ZNK3sls5bvect3getEj(ptr noundef nonnull align 8 dereferenceable(20) %0, i32 noundef %1) #4 comdat align 2 {
  %3 = alloca ptr, align 8
  %4 = alloca i32, align 4
  store ptr %0, ptr %3, align 8, !tbaa !3
  store i32 %1, ptr %4, align 4, !tbaa !8
  %5 = load ptr, ptr %3, align 8
  %6 = load i32, ptr %4, align 4, !tbaa !8
  %7 = call noundef i32 @_ZNK3sls5bvect12get_bit_wordEj(ptr noundef nonnull align 8 dereferenceable(20) %5, i32 noundef %6)
  %8 = load i32, ptr %4, align 4, !tbaa !8
  %9 = call noundef i32 @_ZN3sls5bvect12get_pos_maskEj(i32 noundef %8)
  %10 = and i32 %7, %9
  %11 = icmp ne i32 %10, 0
  ret i1 %11
}

; Function Attrs: mustprogress uwtable
define hidden noundef i32 @_ZNK3sls12bv_valuation10diff_indexERKNS_5bvectE(ptr noundef nonnull align 8 dereferenceable(184) %0, ptr noundef nonnull align 8 dereferenceable(20) %1) #4 align 2 {
  %3 = alloca ptr, align 8
  %4 = alloca ptr, align 8
  %5 = alloca i32, align 4
  %6 = alloca i32, align 4
  %7 = alloca i32, align 4
  store ptr %0, ptr %3, align 8, !tbaa !53
  store ptr %1, ptr %4, align 8, !tbaa !3
  %8 = load ptr, ptr %3, align 8
  call void @llvm.lifetime.start.p0(i64 4, ptr %5) #3
  store i32 0, ptr %5, align 4, !tbaa !8
  call void @llvm.lifetime.start.p0(i64 4, ptr %6) #3
  %9 = getelementptr inbounds nuw %"class.sls::bv_valuation", ptr %8, i32 0, i32 9
  %10 = load i32, ptr %9, align 4, !tbaa !57
  store i32 %10, ptr %6, align 4, !tbaa !8
  br label %11

11:                                               ; preds = %47, %2
  %12 = load i32, ptr %6, align 4, !tbaa !8
  %13 = add i32 %12, -1
  store i32 %13, ptr %6, align 4, !tbaa !8
  %14 = icmp ugt i32 %12, 0
  br i1 %14, label %16, label %15

15:                                               ; preds = %11
  call void @llvm.lifetime.end.p0(i64 4, ptr %6) #3
  br label %48

16:                                               ; preds = %11
  call void @llvm.lifetime.start.p0(i64 4, ptr %7) #3
  %17 = getelementptr inbounds nuw %"class.sls::bv_valuation", ptr %8, i32 0, i32 3
  %18 = load i32, ptr %6, align 4, !tbaa !8
  %19 = call noundef nonnull align 4 dereferenceable(4) ptr @_ZNK6vectorIjLb0EjEixEj(ptr noundef nonnull align 8 dereferenceable(8) %17, i32 noundef %18)
  %20 = load i32, ptr %19, align 4, !tbaa !8
  %21 = getelementptr inbounds nuw %"class.sls::bv_valuation", ptr %8, i32 0, i32 4
  %22 = load i32, ptr %6, align 4, !tbaa !8
  %23 = call noundef nonnull align 4 dereferenceable(4) ptr @_ZNK6vectorIjLb0EjEixEj(ptr noundef nonnull align 8 dereferenceable(8) %21, i32 noundef %22)
  %24 = load i32, ptr %23, align 4, !tbaa !8
  %25 = load ptr, ptr %4, align 8, !tbaa !3
  %26 = load i32, ptr %6, align 4, !tbaa !8
  %27 = call noundef nonnull align 4 dereferenceable(4) ptr @_ZNK6vectorIjLb0EjEixEj(ptr noundef nonnull align 8 dereferenceable(8) %25, i32 noundef %26)
  %28 = load i32, ptr %27, align 4, !tbaa !8
  %29 = xor i32 %24, %28
  %30 = and i32 %20, %29
  store i32 %30, ptr %7, align 4, !tbaa !8
  %31 = load i32, ptr %7, align 4, !tbaa !8
  %32 = icmp ne i32 %31, 0
  br i1 %32, label %33, label %47

33:                                               ; preds = %16
  %34 = load i32, ptr %5, align 4, !tbaa !8
  %35 = icmp eq i32 %34, 0
  br i1 %35, label %36, label %47

36:                                               ; preds = %33
  %37 = load i32, ptr %6, align 4, !tbaa !8
  %38 = mul i32 %37, 8
  %39 = zext i32 %38 to i64
  %40 = mul i64 %39, 4
  %41 = add i64 1, %40
  %42 = load i32, ptr %7, align 4, !tbaa !8
  %43 = call noundef i32 @_Z4log2j(i32 noundef %42)
  %44 = zext i32 %43 to i64
  %45 = add i64 %41, %44
  %46 = trunc i64 %45 to i32
  store i32 %46, ptr %5, align 4, !tbaa !8
  br label %47

47:                                               ; preds = %36, %33, %16
  call void @llvm.lifetime.end.p0(i64 4, ptr %7) #3
  br label %11, !llvm.loop !116

48:                                               ; preds = %15
  %49 = load i32, ptr %5, align 4, !tbaa !8
  call void @llvm.lifetime.end.p0(i64 4, ptr %5) #3
  ret i32 %49
}

; Function Attrs: mustprogress uwtable
define hidden void @_ZNK3sls12bv_valuation12sup_feasibleERNS_5bvectE(ptr noundef nonnull align 8 dereferenceable(184) %0, ptr noundef nonnull align 8 dereferenceable(20) %1) #4 align 2 {
  %3 = alloca ptr, align 8
  %4 = alloca ptr, align 8
  %5 = alloca i32, align 4
  %6 = alloca i32, align 4
  %7 = alloca i32, align 4
  %8 = alloca i32, align 4
  %9 = alloca i32, align 4
  store ptr %0, ptr %3, align 8, !tbaa !53
  store ptr %1, ptr %4, align 8, !tbaa !3
  %10 = load ptr, ptr %3, align 8
  call void @llvm.lifetime.start.p0(i64 4, ptr %5) #3
  %11 = load ptr, ptr %4, align 8, !tbaa !3
  %12 = call noundef i32 @_ZNK3sls12bv_valuation10diff_indexERKNS_5bvectE(ptr noundef nonnull align 8 dereferenceable(184) %10, ptr noundef nonnull align 8 dereferenceable(20) %11)
  store i32 %12, ptr %5, align 4, !tbaa !8
  %13 = load i32, ptr %5, align 4, !tbaa !8
  %14 = icmp eq i32 %13, 0
  br i1 %14, label %15, label %16

15:                                               ; preds = %2
  store i32 1, ptr %6, align 4
  br label %98

16:                                               ; preds = %2
  %17 = load i32, ptr %5, align 4, !tbaa !8
  %18 = add i32 %17, -1
  store i32 %18, ptr %5, align 4, !tbaa !8
  call void @llvm.lifetime.start.p0(i64 4, ptr %7) #3
  store i32 0, ptr %7, align 4, !tbaa !8
  br label %19

19:                                               ; preds = %43, %16
  %20 = load i32, ptr %7, align 4, !tbaa !8
  %21 = load i32, ptr %5, align 4, !tbaa !8
  %22 = icmp ule i32 %20, %21
  br i1 %22, label %24, label %23

23:                                               ; preds = %19
  store i32 2, ptr %6, align 4
  call void @llvm.lifetime.end.p0(i64 4, ptr %7) #3
  br label %46

24:                                               ; preds = %19
  %25 = getelementptr inbounds nuw %"class.sls::bv_valuation", ptr %10, i32 0, i32 3
  %26 = load i32, ptr %7, align 4, !tbaa !8
  %27 = call noundef zeroext i1 @_ZNK3sls5bvect3getEj(ptr noundef nonnull align 8 dereferenceable(20) %25, i32 noundef %26)
  br i1 %27, label %31, label %28

28:                                               ; preds = %24
  %29 = load ptr, ptr %4, align 8, !tbaa !3
  %30 = load i32, ptr %7, align 4, !tbaa !8
  call void @_ZN3sls5bvect3setEjb(ptr noundef nonnull align 8 dereferenceable(20) %29, i32 noundef %30, i1 noundef zeroext true)
  br label %42

31:                                               ; preds = %24
  %32 = getelementptr inbounds nuw %"class.sls::bv_valuation", ptr %10, i32 0, i32 3
  %33 = load i32, ptr %7, align 4, !tbaa !8
  %34 = call noundef zeroext i1 @_ZNK3sls5bvect3getEj(ptr noundef nonnull align 8 dereferenceable(20) %32, i32 noundef %33)
  br i1 %34, label %35, label %41

35:                                               ; preds = %31
  %36 = load ptr, ptr %4, align 8, !tbaa !3
  %37 = load i32, ptr %7, align 4, !tbaa !8
  %38 = getelementptr inbounds nuw %"class.sls::bv_valuation", ptr %10, i32 0, i32 4
  %39 = load i32, ptr %7, align 4, !tbaa !8
  %40 = call noundef zeroext i1 @_ZNK3sls5bvect3getEj(ptr noundef nonnull align 8 dereferenceable(20) %38, i32 noundef %39)
  call void @_ZN3sls5bvect3setEjb(ptr noundef nonnull align 8 dereferenceable(20) %36, i32 noundef %37, i1 noundef zeroext %40)
  br label %41

41:                                               ; preds = %35, %31
  br label %42

42:                                               ; preds = %41, %28
  br label %43

43:                                               ; preds = %42
  %44 = load i32, ptr %7, align 4, !tbaa !8
  %45 = add i32 %44, 1
  store i32 %45, ptr %7, align 4, !tbaa !8
  br label %19, !llvm.loop !63

46:                                               ; preds = %23
  %47 = load ptr, ptr %4, align 8, !tbaa !3
  %48 = load i32, ptr %5, align 4, !tbaa !8
  %49 = call noundef zeroext i1 @_ZNK3sls5bvect3getEj(ptr noundef nonnull align 8 dereferenceable(20) %47, i32 noundef %48)
  br i1 %49, label %51, label %50

50:                                               ; preds = %46
  store i32 1, ptr %6, align 4
  br label %98

51:                                               ; preds = %46
  call void @llvm.lifetime.start.p0(i64 4, ptr %8) #3
  %52 = load i32, ptr %5, align 4, !tbaa !8
  %53 = add i32 %52, 1
  store i32 %53, ptr %8, align 4, !tbaa !8
  br label %54

54:                                               ; preds = %72, %51
  %55 = load i32, ptr %8, align 4, !tbaa !8
  %56 = getelementptr inbounds nuw %"class.sls::bv_valuation", ptr %10, i32 0, i32 8
  %57 = load i32, ptr %56, align 8, !tbaa !60
  %58 = icmp ult i32 %55, %57
  br i1 %58, label %60, label %59

59:                                               ; preds = %54
  store i32 5, ptr %6, align 4
  br label %75

60:                                               ; preds = %54
  %61 = getelementptr inbounds nuw %"class.sls::bv_valuation", ptr %10, i32 0, i32 3
  %62 = load i32, ptr %8, align 4, !tbaa !8
  %63 = call noundef zeroext i1 @_ZNK3sls5bvect3getEj(ptr noundef nonnull align 8 dereferenceable(20) %61, i32 noundef %62)
  br i1 %63, label %71, label %64

64:                                               ; preds = %60
  %65 = load ptr, ptr %4, align 8, !tbaa !3
  %66 = load i32, ptr %8, align 4, !tbaa !8
  %67 = call noundef zeroext i1 @_ZNK3sls5bvect3getEj(ptr noundef nonnull align 8 dereferenceable(20) %65, i32 noundef %66)
  br i1 %67, label %68, label %71

68:                                               ; preds = %64
  %69 = load ptr, ptr %4, align 8, !tbaa !3
  %70 = load i32, ptr %8, align 4, !tbaa !8
  call void @_ZN3sls5bvect3setEjb(ptr noundef nonnull align 8 dereferenceable(20) %69, i32 noundef %70, i1 noundef zeroext false)
  store i32 1, ptr %6, align 4
  br label %75

71:                                               ; preds = %64, %60
  br label %72

72:                                               ; preds = %71
  %73 = load i32, ptr %8, align 4, !tbaa !8
  %74 = add i32 %73, 1
  store i32 %74, ptr %8, align 4, !tbaa !8
  br label %54, !llvm.loop !64

75:                                               ; preds = %68, %59
  call void @llvm.lifetime.end.p0(i64 4, ptr %8) #3
  %76 = load i32, ptr %6, align 4
  switch i32 %76, label %98 [
    i32 5, label %77
  ]

77:                                               ; preds = %75
  call void @llvm.lifetime.start.p0(i64 4, ptr %9) #3
  %78 = load i32, ptr %5, align 4, !tbaa !8
  %79 = add i32 %78, 1
  store i32 %79, ptr %9, align 4, !tbaa !8
  br label %80

80:                                               ; preds = %94, %77
  %81 = load i32, ptr %9, align 4, !tbaa !8
  %82 = getelementptr inbounds nuw %"class.sls::bv_valuation", ptr %10, i32 0, i32 8
  %83 = load i32, ptr %82, align 8, !tbaa !60
  %84 = icmp ult i32 %81, %83
  br i1 %84, label %86, label %85

85:                                               ; preds = %80
  store i32 8, ptr %6, align 4
  call void @llvm.lifetime.end.p0(i64 4, ptr %9) #3
  br label %97

86:                                               ; preds = %80
  %87 = getelementptr inbounds nuw %"class.sls::bv_valuation", ptr %10, i32 0, i32 3
  %88 = load i32, ptr %9, align 4, !tbaa !8
  %89 = call noundef zeroext i1 @_ZNK3sls5bvect3getEj(ptr noundef nonnull align 8 dereferenceable(20) %87, i32 noundef %88)
  br i1 %89, label %93, label %90

90:                                               ; preds = %86
  %91 = load ptr, ptr %4, align 8, !tbaa !3
  %92 = load i32, ptr %9, align 4, !tbaa !8
  call void @_ZN3sls5bvect3setEjb(ptr noundef nonnull align 8 dereferenceable(20) %91, i32 noundef %92, i1 noundef zeroext true)
  br label %93

93:                                               ; preds = %90, %86
  br label %94

94:                                               ; preds = %93
  %95 = load i32, ptr %9, align 4, !tbaa !8
  %96 = add i32 %95, 1
  store i32 %96, ptr %9, align 4, !tbaa !8
  br label %80, !llvm.loop !65

97:                                               ; preds = %85
  store i32 0, ptr %6, align 4
  br label %98

98:                                               ; preds = %97, %75, %50, %15
  call void @llvm.lifetime.end.p0(i64 4, ptr %5) #3
  %99 = load i32, ptr %6, align 4
  switch i32 %99, label %101 [
    i32 0, label %100
    i32 1, label %100
  ]

100:                                              ; preds = %98, %98
  ret void

101:                                              ; preds = %98
  unreachable
}