; Function Attrs: mustprogress uwtable
define hidden void @_ZNK3sls12bv_valuation12sup_feasibleERNS_5bvectE(ptr noundef nonnull readonly align 8 captures(none) dereferenceable(184) %0, ptr noundef nonnull readonly align 8 captures(none) dereferenceable(20) %1) local_unnamed_addr #3 align 2 {
  %3 = getelementptr inbounds nuw i8, ptr %0, i64 156
  %4 = load i32, ptr %3, align 4, !tbaa !68
  %.not13.i = icmp eq i32 %4, 0
  br i1 %.not13.i, label %_ZNK3sls12bv_valuation10diff_indexERKNS_5bvectE.exit.thread, label %.lr.ph.i

.lr.ph.i:                                         ; preds = %2
  %5 = getelementptr inbounds nuw i8, ptr %0, i64 72
  %6 = getelementptr inbounds nuw i8, ptr %0, i64 96
  %7 = zext i32 %4 to i64
  br label %8

8:                                                ; preds = %28, %.lr.ph.i
  %indvars.iv.i = phi i64 [ %7, %.lr.ph.i ], [ %indvars.iv.next.i, %28 ]
  %.014.i = phi i32 [ 0, %.lr.ph.i ], [ %.1.i, %28 ]
  %indvars.iv.next.i = add nsw i64 %indvars.iv.i, -1
  %indvars.i = trunc i64 %indvars.iv.next.i to i32
  %9 = load ptr, ptr %5, align 8, !tbaa !14
  %10 = and i64 %indvars.iv.next.i, 4294967295
  %11 = getelementptr inbounds nuw i32, ptr %9, i64 %10
  %12 = load i32, ptr %11, align 4, !tbaa !15
  %13 = load ptr, ptr %6, align 8, !tbaa !14
  %14 = getelementptr inbounds nuw i32, ptr %13, i64 %10
  %15 = load i32, ptr %14, align 4, !tbaa !15
  %16 = load ptr, ptr %1, align 8, !tbaa !14
  %17 = getelementptr inbounds nuw i32, ptr %16, i64 %10
  %18 = load i32, ptr %17, align 4, !tbaa !15
  %19 = xor i32 %18, %15
  %20 = and i32 %19, %12
  %21 = icmp ne i32 %20, 0
  %22 = icmp eq i32 %.014.i, 0
  %or.cond.i = select i1 %21, i1 %22, i1 false
  br i1 %or.cond.i, label %23, label %28

23:                                               ; preds = %8
  %24 = shl i32 %indvars.i, 5
  %25 = or disjoint i32 %24, 1
  %26 = tail call noundef i32 @_Z4log2j(i32 noundef %20)
  %27 = add i32 %25, %26
  br label %28

28:                                               ; preds = %23, %8
  %.1.i = phi i32 [ %27, %23 ], [ %.014.i, %8 ]
  %.not.i = icmp eq i32 %indvars.i, 0
  br i1 %.not.i, label %_ZNK3sls12bv_valuation10diff_indexERKNS_5bvectE.exit, label %8, !llvm.loop !75

_ZNK3sls12bv_valuation10diff_indexERKNS_5bvectE.exit: ; preds = %28
  %29 = icmp eq i32 %.1.i, 0
  br i1 %29, label %_ZNK3sls12bv_valuation10diff_indexERKNS_5bvectE.exit.thread, label %30

30:                                               ; preds = %_ZNK3sls12bv_valuation10diff_indexERKNS_5bvectE.exit
  %31 = load ptr, ptr %5, align 8, !tbaa !14
  %32 = load ptr, ptr %6, align 8
  %33 = load ptr, ptr %1, align 8
  br label %46

34:                                               ; preds = %68
  %35 = add i32 %.1.i, -1
  %36 = lshr i32 %35, 5
  %37 = load ptr, ptr %1, align 8, !tbaa !14
  %38 = zext nneg i32 %36 to i64
  %39 = getelementptr inbounds nuw i32, ptr %37, i64 %38
  %40 = load i32, ptr %39, align 4, !tbaa !15
  %41 = and i32 %35, 31
  %42 = shl nuw i32 1, %41
  %43 = and i32 %40, %42
  %.not38 = icmp eq i32 %43, 0
  br i1 %.not38, label %_ZNK3sls12bv_valuation10diff_indexERKNS_5bvectE.exit.thread, label %.preheader

.preheader:                                       ; preds = %34
  %44 = getelementptr inbounds nuw i8, ptr %0, i64 152
  %45 = load i32, ptr %44, align 8, !tbaa !67
  %.not3548 = icmp ult i32 %.1.i, %45
  br i1 %.not3548, label %.lr.ph, label %_ZNK3sls12bv_valuation10diff_indexERKNS_5bvectE.exit.thread

46:                                               ; preds = %30, %68
  %.03146 = phi i32 [ 0, %30 ], [ %69, %68 ]
  %47 = lshr i32 %.03146, 5
  %48 = zext nneg i32 %47 to i64
  %49 = getelementptr inbounds nuw i32, ptr %31, i64 %48
  %50 = load i32, ptr %49, align 4, !tbaa !15
  %51 = and i32 %.03146, 31
  %52 = shl nuw i32 1, %51
  %53 = and i32 %50, %52
  %.not37 = icmp eq i32 %53, 0
  br i1 %.not37, label %54, label %58

54:                                               ; preds = %46
  %55 = getelementptr inbounds nuw i32, ptr %33, i64 %48
  %56 = load i32, ptr %55, align 4, !tbaa !15
  %57 = or i32 %56, %52
  store i32 %57, ptr %55, align 4, !tbaa !15
  br label %68

58:                                               ; preds = %46
  %59 = getelementptr inbounds nuw i32, ptr %32, i64 %48
  %60 = load i32, ptr %59, align 4, !tbaa !15
  %61 = and i32 %60, %52
  %62 = icmp ne i32 %61, 0
  %.neg.i = sext i1 %62 to i32
  %63 = getelementptr inbounds nuw i32, ptr %33, i64 %48
  %64 = load i32, ptr %63, align 4, !tbaa !15
  %65 = xor i32 %64, %.neg.i
  %66 = and i32 %65, %52
  %67 = xor i32 %66, %64
  store i32 %67, ptr %63, align 4, !tbaa !15
  br label %68

68:                                               ; preds = %54, %58
  %69 = add i32 %.03146, 1
  %exitcond.not = icmp eq i32 %69, %.1.i
  br i1 %exitcond.not, label %34, label %46, !llvm.loop !76

.lr.ph:                                           ; preds = %.preheader, %84
  %.03049 = phi i32 [ %85, %84 ], [ %.1.i, %.preheader ]
  %70 = lshr i32 %.03049, 5
  %71 = zext nneg i32 %70 to i64
  %72 = getelementptr inbounds nuw i32, ptr %31, i64 %71
  %73 = load i32, ptr %72, align 4, !tbaa !15
  %74 = and i32 %.03049, 31
  %75 = shl nuw i32 1, %74
  %76 = and i32 %73, %75
  %.not40 = icmp eq i32 %76, 0
  br i1 %.not40, label %77, label %84

77:                                               ; preds = %.lr.ph
  %78 = getelementptr inbounds nuw i32, ptr %37, i64 %71
  %79 = load i32, ptr %78, align 4, !tbaa !15
  %80 = and i32 %79, %75
  %.not41 = icmp eq i32 %80, 0
  br i1 %.not41, label %84, label %81

81:                                               ; preds = %77
  %82 = getelementptr inbounds nuw i32, ptr %37, i64 %71
  %83 = xor i32 %80, %79
  store i32 %83, ptr %82, align 4, !tbaa !15
  br label %_ZNK3sls12bv_valuation10diff_indexERKNS_5bvectE.exit.thread

84:                                               ; preds = %.lr.ph, %77
  %85 = add i32 %.03049, 1
  %exitcond56.not = icmp eq i32 %85, %45
  br i1 %exitcond56.not, label %.lr.ph51, label %.lr.ph, !llvm.loop !77

.lr.ph51:                                         ; preds = %84, %.critedge
  %86 = phi i32 [ %98, %.critedge ], [ %45, %84 ]
  %.050 = phi i32 [ %99, %.critedge ], [ %.1.i, %84 ]
  %87 = lshr i32 %.050, 5
  %88 = zext nneg i32 %87 to i64
  %89 = getelementptr inbounds nuw i32, ptr %31, i64 %88
  %90 = load i32, ptr %89, align 4, !tbaa !15
  %91 = and i32 %.050, 31
  %92 = shl nuw i32 1, %91
  %93 = and i32 %90, %92
  %.not39 = icmp eq i32 %93, 0
  br i1 %.not39, label %94, label %.critedge

94:                                               ; preds = %.lr.ph51
  %95 = getelementptr inbounds nuw i32, ptr %37, i64 %88
  %96 = load i32, ptr %95, align 4, !tbaa !15
  %97 = or i32 %96, %92
  store i32 %97, ptr %95, align 4, !tbaa !15
  %.pre = load i32, ptr %44, align 8, !tbaa !67
  br label %.critedge

.critedge:                                        ; preds = %.lr.ph51, %94
  %98 = phi i32 [ %86, %.lr.ph51 ], [ %.pre, %94 ]
  %99 = add nuw i32 %.050, 1
  %100 = icmp ult i32 %99, %98
  br i1 %100, label %.lr.ph51, label %_ZNK3sls12bv_valuation10diff_indexERKNS_5bvectE.exit.thread, !llvm.loop !78

_ZNK3sls12bv_valuation10diff_indexERKNS_5bvectE.exit.thread: ; preds = %.critedge, %.preheader, %2, %81, %34, %_ZNK3sls12bv_valuation10diff_indexERKNS_5bvectE.exit
  ret void
}